target datalayout = "e-m:e-p270:32:32-p271:32:32-p272:64:64-i64:64-i128:128-f80:128-n8:16:32:64-S128"
target triple = "x86_64-pc-linux-gnu"

%struct.lua_Debug = type { i32, ptr, ptr, ptr, ptr, i32, i32, i32, i32, [60 x i8], i32 }

@.str.73 = private unnamed_addr constant [29 x i8] c"too many arguments to resume\00", align 1
@.str.74 = private unnamed_addr constant [27 x i8] c"cannot resume %s coroutine\00", align 1
@statnames = internal constant [4 x ptr] [ptr @.str.67, ptr @.str.76, ptr @.str.77, ptr @.str.78], align 16
@.str.75 = private unnamed_addr constant [27 x i8] c"too many results to resume\00", align 1

; Function Attrs: nounwind uwtable
define internal i32 @costatus(ptr noundef %0, ptr noundef %1) #0 {
  %3 = alloca i32, align 4
  %4 = alloca ptr, align 8
  %5 = alloca ptr, align 8
  %6 = alloca %struct.lua_Debug, align 8
  %7 = alloca i32, align 4
  store ptr %0, ptr %4, align 8, !tbaa !4
  store ptr %1, ptr %5, align 8, !tbaa !4
  %8 = load ptr, ptr %4, align 8, !tbaa !4
  %9 = load ptr, ptr %5, align 8, !tbaa !4
  %10 = icmp eq ptr %8, %9
  br i1 %10, label %11, label %12

11:                                               ; preds = %2
  store i32 0, ptr %3, align 4
  br label %29

12:                                               ; preds = %2
  %13 = load ptr, ptr %5, align 8, !tbaa !4
  %14 = call i32 @lua_status(ptr noundef %13)
  switch i32 %14, label %28 [
    i32 1, label %15
    i32 0, label %16
  ]

15:                                               ; preds = %12
  store i32 1, ptr %3, align 4
  br label %29

16:                                               ; preds = %12
  call void @llvm.lifetime.start.p0(i64 120, ptr %6) #5
  %17 = load ptr, ptr %5, align 8, !tbaa !4
  %18 = call i32 @lua_getstack(ptr noundef %17, i32 noundef 0, ptr noundef %6)
  %19 = icmp sgt i32 %18, 0
  br i1 %19, label %20, label %21

20:                                               ; preds = %16
  store i32 2, ptr %3, align 4
  store i32 1, ptr %7, align 4
  br label %27

21:                                               ; preds = %16
  %22 = load ptr, ptr %5, align 8, !tbaa !4
  %23 = call i32 @lua_gettop(ptr noundef %22)
  %24 = icmp eq i32 %23, 0
  br i1 %24, label %25, label %26

25:                                               ; preds = %21
  store i32 3, ptr %3, align 4
  store i32 1, ptr %7, align 4
  br label %27

26:                                               ; preds = %21
  store i32 1, ptr %3, align 4
  store i32 1, ptr %7, align 4
  br label %27

27:                                               ; preds = %26, %25, %20
  call void @llvm.lifetime.end.p0(i64 120, ptr %6) #5
  br label %29

28:                                               ; preds = %12
  store i32 3, ptr %3, align 4
  br label %29

29:                                               ; preds = %28, %27, %15, %11
  %30 = load i32, ptr %3, align 4
  ret i32 %30
}

; Function Attrs: nounwind uwtable
define internal i32 @auxresume(ptr noundef %0, ptr noundef %1, i32 noundef %2) #0 {
  %4 = alloca i32, align 4
  %5 = alloca ptr, align 8
  %6 = alloca ptr, align 8
  %7 = alloca i32, align 4
  %8 = alloca i32, align 4
  %9 = alloca i32, align 4
  %10 = alloca i32, align 4
  store ptr %0, ptr %5, align 8, !tbaa !4
  store ptr %1, ptr %6, align 8, !tbaa !4
  store i32 %2, ptr %7, align 4, !tbaa !12
  call void @llvm.lifetime.start.p0(i64 4, ptr %8) #5
  %11 = load ptr, ptr %5, align 8, !tbaa !4
  %12 = load ptr, ptr %6, align 8, !tbaa !4
  %13 = call i32 @costatus(ptr noundef %11, ptr noundef %12)
  store i32 %13, ptr %8, align 4, !tbaa !12
  %14 = load ptr, ptr %6, align 8, !tbaa !4
  %15 = load i32, ptr %7, align 4, !tbaa !12
  %16 = call i32 @lua_checkstack(ptr noundef %14, i32 noundef %15)
  %17 = icmp ne i32 %16, 0
  br i1 %17, label %21, label %18

18:                                               ; preds = %3
  %19 = load ptr, ptr %5, align 8, !tbaa !4
  %20 = call i32 (ptr, ptr, ...) @luaL_error(ptr noundef %19, ptr noundef @.str.73)
  br label %21

21:                                               ; preds = %18, %3
  %22 = load i32, ptr %8, align 4, !tbaa !12
  %23 = icmp ne i32 %22, 1
  br i1 %23, label %24, label %31

24:                                               ; preds = %21
  %25 = load ptr, ptr %5, align 8, !tbaa !4
  %26 = load i32, ptr %8, align 4, !tbaa !12
  %27 = sext i32 %26 to i64
  %28 = getelementptr inbounds [4 x ptr], ptr @statnames, i64 0, i64 %27
  %29 = load ptr, ptr %28, align 8, !tbaa !9
  %30 = call ptr (ptr, ptr, ...) @lua_pushfstring(ptr noundef %25, ptr noundef @.str.74, ptr noundef %29)
  store i32 -1, ptr %4, align 4
  store i32 1, ptr %9, align 4
  br label %64

31:                                               ; preds = %21
  %32 = load ptr, ptr %5, align 8, !tbaa !4
  %33 = load ptr, ptr %6, align 8, !tbaa !4
  %34 = load i32, ptr %7, align 4, !tbaa !12
  call void @lua_xmove(ptr noundef %32, ptr noundef %33, i32 noundef %34)
  %35 = load ptr, ptr %5, align 8, !tbaa !4
  %36 = load ptr, ptr %6, align 8, !tbaa !4
  call void @lua_setlevel(ptr noundef %35, ptr noundef %36)
  %37 = load ptr, ptr %6, align 8, !tbaa !4
  %38 = load i32, ptr %7, align 4, !tbaa !12
  %39 = call i32 @lua_resume(ptr noundef %37, i32 noundef %38)
  store i32 %39, ptr %8, align 4, !tbaa !12
  %40 = load i32, ptr %8, align 4, !tbaa !12
  %41 = icmp eq i32 %40, 0
  br i1 %41, label %45, label %42

42:                                               ; preds = %31
  %43 = load i32, ptr %8, align 4, !tbaa !12
  %44 = icmp eq i32 %43, 1
  br i1 %44, label %45, label %61

45:                                               ; preds = %42, %31
  call void @llvm.lifetime.start.p0(i64 4, ptr %10) #5
  %46 = load ptr, ptr %6, align 8, !tbaa !4
  %47 = call i32 @lua_gettop(ptr noundef %46)
  store i32 %47, ptr %10, align 4, !tbaa !12
  %48 = load ptr, ptr %5, align 8, !tbaa !4
  %49 = load i32, ptr %10, align 4, !tbaa !12
  %50 = add nsw i32 %49, 1
  %51 = call i32 @lua_checkstack(ptr noundef %48, i32 noundef %50)
  %52 = icmp ne i32 %51, 0
  br i1 %52, label %56, label %53

53:                                               ; preds = %45
  %54 = load ptr, ptr %5, align 8, !tbaa !4
  %55 = call i32 (ptr, ptr, ...) @luaL_error(ptr noundef %54, ptr noundef @.str.75)
  br label %56

56:                                               ; preds = %53, %45
  %57 = load ptr, ptr %6, align 8, !tbaa !4
  %58 = load ptr, ptr %5, align 8, !tbaa !4
  %59 = load i32, ptr %10, align 4, !tbaa !12
  call void @lua_xmove(ptr noundef %57, ptr noundef %58, i32 noundef %59)
  %60 = load i32, ptr %10, align 4, !tbaa !12
  store i32 %60, ptr %4, align 4
  store i32 1, ptr %9, align 4
  call void @llvm.lifetime.end.p0(i64 4, ptr %10) #5
  br label %64

61:                                               ; preds = %42
  %62 = load ptr, ptr %6, align 8, !tbaa !4
  %63 = load ptr, ptr %5, align 8, !tbaa !4
  call void @lua_xmove(ptr noundef %62, ptr noundef %63, i32 noundef 1)
  store i32 -1, ptr %4, align 4
  store i32 1, ptr %9, align 4
  br label %64

64:                                               ; preds = %61, %56, %24
  call void @llvm.lifetime.end.p0(i64 4, ptr %8) #5
  %65 = load i32, ptr %4, align 4
  ret i32 %65
}