; Function Attrs: nounwind uwtable
define internal fastcc i32 @auxresume(ptr noundef %0, ptr noundef %1, i32 noundef %2) unnamed_addr #0 {
  %4 = alloca %struct.lua_Debug, align 8
  %5 = icmp eq ptr %0, %1
  br i1 %5, label %costatus.exit, label %6

6:                                                ; preds = %3
  %7 = tail call i32 @lua_status(ptr noundef %1) #8
  switch i32 %7, label %15 [
    i32 1, label %costatus.exit
    i32 0, label %8
  ]

8:                                                ; preds = %6
  call void @llvm.lifetime.start.p0(i64 120, ptr nonnull %4) #8
  %9 = call i32 @lua_getstack(ptr noundef %1, i32 noundef 0, ptr noundef nonnull %4) #8
  %10 = icmp sgt i32 %9, 0
  br i1 %10, label %14, label %11

11:                                               ; preds = %8
  %12 = call i32 @lua_gettop(ptr noundef %1) #8
  %13 = icmp eq i32 %12, 0
  %..i = select i1 %13, i32 3, i32 1
  br label %14

14:                                               ; preds = %11, %8
  %.1.i = phi i32 [ 2, %8 ], [ %..i, %11 ]
  call void @llvm.lifetime.end.p0(i64 120, ptr nonnull %4) #8
  br label %costatus.exit

15:                                               ; preds = %6
  br label %costatus.exit

costatus.exit:                                    ; preds = %3, %6, %14, %15
  %.0.i = phi i32 [ 3, %15 ], [ %.1.i, %14 ], [ 0, %3 ], [ %7, %6 ]
  %16 = call i32 @lua_checkstack(ptr noundef %1, i32 noundef %2) #8
  %.not = icmp eq i32 %16, 0
  br i1 %.not, label %17, label %19

17:                                               ; preds = %costatus.exit
  %18 = call i32 (ptr, ptr, ...) @luaL_error(ptr noundef %0, ptr noundef nonnull @.str.73) #8
  br label %19

19:                                               ; preds = %17, %costatus.exit
  %.not29 = icmp eq i32 %.0.i, 1
  br i1 %.not29, label %25, label %20

20:                                               ; preds = %19
  %21 = zext nneg i32 %.0.i to i64
  %22 = getelementptr inbounds nuw [4 x ptr], ptr @statnames, i64 0, i64 %21
  %23 = load ptr, ptr %22, align 8, !tbaa !16
  %24 = call ptr (ptr, ptr, ...) @lua_pushfstring(ptr noundef %0, ptr noundef nonnull @.str.74, ptr noundef %23) #8
  br label %35

25:                                               ; preds = %19
  call void @lua_xmove(ptr noundef %0, ptr noundef %1, i32 noundef %2) #8
  call void @lua_setlevel(ptr noundef %0, ptr noundef %1) #8
  %26 = call i32 @lua_resume(ptr noundef %1, i32 noundef %2) #8
  %or.cond = icmp ult i32 %26, 2
  br i1 %or.cond, label %27, label %34

27:                                               ; preds = %25
  %28 = call i32 @lua_gettop(ptr noundef %1) #8
  %29 = add nsw i32 %28, 1
  %30 = call i32 @lua_checkstack(ptr noundef %0, i32 noundef %29) #8
  %.not30 = icmp eq i32 %30, 0
  br i1 %.not30, label %31, label %33

31:                                               ; preds = %27
  %32 = call i32 (ptr, ptr, ...) @luaL_error(ptr noundef %0, ptr noundef nonnull @.str.75) #8
  br label %33

33:                                               ; preds = %31, %27
  call void @lua_xmove(ptr noundef %1, ptr noundef %0, i32 noundef %28) #8
  br label %35

34:                                               ; preds = %25
  call void @lua_xmove(ptr noundef %1, ptr noundef %0, i32 noundef 1) #8
  br label %35

35:                                               ; preds = %34, %33, %20
  %.0 = phi i32 [ -1, %20 ], [ %28, %33 ], [ -1, %34 ]
  ret i32 %.0
}